; Function Attrs: mustprogress nounwind uwtable
define hidden void @_ZN9Assembler3jmpER5Labelb(ptr nocapture noundef nonnull readonly align 8 dereferenceable(40) %0, ptr noundef nonnull align 8 dereferenceable(33) %1, i1 noundef zeroext %2) local_unnamed_addr #0 align 2 {
  %4 = load i32, ptr %1, align 8
  %5 = icmp sgt i32 %4, -1
  %6 = getelementptr inbounds i8, ptr %0, i64 8
  %7 = load ptr, ptr %6, align 8
  %8 = getelementptr inbounds i8, ptr %7, i64 16
  %9 = load ptr, ptr %8, align 8
  br i1 %5, label %10, label %37

10:                                               ; preds = %3
  %11 = tail call noundef ptr @_ZN11CodeSection6targetER5LabelPh(ptr noundef nonnull align 8 dereferenceable(88) %7, ptr noundef nonnull align 8 dereferenceable(33) %1, ptr noundef %9) #18
  %12 = load ptr, ptr %6, align 8
  %13 = getelementptr inbounds i8, ptr %12, i64 16
  %14 = load ptr, ptr %13, align 8
  %15 = getelementptr inbounds i8, ptr %12, i64 8
  store ptr %14, ptr %15, align 8
  %16 = load ptr, ptr %6, align 8
  %17 = getelementptr inbounds i8, ptr %16, i64 16
  %18 = load ptr, ptr %17, align 8
  %19 = ptrtoint ptr %11 to i64
  %20 = ptrtoint ptr %18 to i64
  %21 = sub i64 %19, %20
  %22 = trunc i64 %21 to i32
  %23 = add i32 %22, 126
  %24 = icmp ult i32 %23, 256
  %or.cond = select i1 %2, i1 %24, i1 false
  br i1 %or.cond, label %25, label %29

25:                                               ; preds = %10
  %26 = trunc i64 %21 to i8
  %.0.i2.i = add i8 %26, -2
  %27 = getelementptr inbounds i8, ptr %18, i64 1
  store i8 -21, ptr %18, align 1
  %28 = getelementptr inbounds i8, ptr %18, i64 2
  store i8 %.0.i2.i, ptr %27, align 1
  store ptr %28, ptr %17, align 8
  br label %63

29:                                               ; preds = %10
  %30 = getelementptr inbounds i8, ptr %18, i64 1
  store i8 -23, ptr %18, align 1
  store ptr %30, ptr %17, align 8
  %31 = add nsw i32 %22, -5
  %32 = load ptr, ptr %6, align 8
  %33 = getelementptr inbounds i8, ptr %32, i64 16
  %34 = load ptr, ptr %33, align 8
  store i32 %31, ptr %34, align 1
  %35 = load ptr, ptr %33, align 8
  %36 = getelementptr inbounds i8, ptr %35, i64 4
  store ptr %36, ptr %33, align 8
  br label %63

37:                                               ; preds = %3
  %38 = getelementptr inbounds i8, ptr %7, i64 8
  store ptr %9, ptr %38, align 8
  %39 = load ptr, ptr %6, align 8
  %40 = getelementptr inbounds i8, ptr %39, i64 80
  %41 = load ptr, ptr %40, align 8
  %42 = getelementptr inbounds i8, ptr %39, i64 16
  %43 = load ptr, ptr %42, align 8
  %44 = load ptr, ptr %39, align 8
  %45 = ptrtoint ptr %43 to i64
  %46 = ptrtoint ptr %44 to i64
  %47 = sub i64 %45, %46
  %48 = trunc i64 %47 to i32
  %49 = getelementptr inbounds i8, ptr %39, i64 72
  %50 = load i8, ptr %49, align 8
  %51 = sext i8 %50 to i32
  %52 = shl i32 %48, 2
  %53 = or i32 %52, %51
  tail call void @_ZN5Label12add_patch_atEP10CodeBufferiPKci(ptr noundef nonnull align 8 dereferenceable(33) %1, ptr noundef %41, i32 noundef %53, ptr noundef null, i32 noundef 0) #18
  %54 = load ptr, ptr %6, align 8
  %55 = getelementptr inbounds i8, ptr %54, i64 16
  %56 = load ptr, ptr %55, align 8
  %57 = getelementptr inbounds i8, ptr %56, i64 1
  store i8 -23, ptr %56, align 1
  store ptr %57, ptr %55, align 8
  %58 = load ptr, ptr %6, align 8
  %59 = getelementptr inbounds i8, ptr %58, i64 16
  %60 = load ptr, ptr %59, align 8
  store i32 0, ptr %60, align 1
  %61 = load ptr, ptr %59, align 8
  %62 = getelementptr inbounds i8, ptr %61, i64 4
  store ptr %62, ptr %59, align 8
  br label %63

63:                                               ; preds = %25, %29, %37
  %64 = load ptr, ptr %6, align 8
  %65 = getelementptr inbounds i8, ptr %64, i64 8
  store ptr null, ptr %65, align 8
  ret void
}